; Function Attrs: nounwind sspstrong uwtable
define dso_local i64 @rb_ary_each(i64 noundef %0) #4 {
  %2 = tail call i32 @rb_block_given_p() #24
  %.not = icmp eq i32 %2, 0
  br i1 %.not, label %6, label %.preheader

.preheader:                                       ; preds = %1
  %3 = inttoptr i64 %0 to ptr
  %4 = getelementptr inbounds nuw i8, ptr %3, i64 16
  %5 = getelementptr inbounds nuw i8, ptr %3, i64 32
  br label %10

6:                                                ; preds = %1
  %7 = tail call i64 @rb_frame_this_func() #24
  %8 = tail call i64 @rb_id2sym(i64 noundef %7) #24
  %9 = tail call i64 @rb_enumeratorize_with_size(i64 noundef %0, i64 noundef %8, i32 noundef 0, ptr noundef null, ptr noundef nonnull @ary_enum_length) #24
  br label %.loopexit

10:                                               ; preds = %.preheader, %RARRAY_AREF.exit
  %.0 = phi i64 [ %23, %RARRAY_AREF.exit ], [ 0, %.preheader ]
  %11 = load i64, ptr %3, align 8, !tbaa !7
  %12 = and i64 %11, 8192
  %.not.i = icmp eq i64 %12, 0
  br i1 %.not.i, label %rb_array_len.exit, label %rb_array_len.exit.thread

rb_array_len.exit:                                ; preds = %10
  %13 = load i64, ptr %4, align 8, !tbaa !12
  %14 = icmp slt i64 %.0, %13
  br i1 %14, label %18, label %.loopexit

rb_array_len.exit.thread:                         ; preds = %10
  %15 = lshr i64 %11, 15
  %16 = and i64 %15, 127
  %17 = icmp samesign ult i64 %.0, %16
  br i1 %17, label %RARRAY_AREF.exit, label %.loopexit

18:                                               ; preds = %rb_array_len.exit
  %19 = load ptr, ptr %5, align 8, !tbaa !12
  br label %RARRAY_AREF.exit

RARRAY_AREF.exit:                                 ; preds = %rb_array_len.exit.thread, %18
  %.0.i.i = phi ptr [ %19, %18 ], [ %4, %rb_array_len.exit.thread ]
  %20 = getelementptr i64, ptr %.0.i.i, i64 %.0
  %21 = load i64, ptr %20, align 8, !tbaa !13
  %22 = tail call i64 @rb_yield(i64 noundef %21) #24
  %23 = add nuw nsw i64 %.0, 1
  br label %10, !llvm.loop !41

.loopexit:                                        ; preds = %rb_array_len.exit.thread, %rb_array_len.exit, %6
  %.08 = phi i64 [ %9, %6 ], [ %0, %rb_array_len.exit ], [ %0, %rb_array_len.exit.thread ]
  ret i64 %.08
}